ccopy_reg
_reconstructor
p1
(cscipy.sparse.coo
coo_matrix
p2
c__builtin__
object
p3
NtRp4
(dp5
S'format'
p6
S'coo'
p7
sS'_shape'
p8
(I800
I1280
tp9
sS'maxprint'
p10
I50
sS'data'
p11
cnumpy.core.multiarray
_reconstruct
p12
(cnumpy
ndarray
p13
(I0
tS'b'
tRp14
(I1
(L0L
tcnumpy
dtype
p15
(S'u4'
I0
I1
tRp16
(I3
S'<'
NNNI-1
I-1
I0
tbI00
S''
tbsS'col'
p17
g12
(g13
(I0
tS'b'
tRp18
(I1
(L0L
tg15
(S'i4'
I0
I1
tRp19
(I3
S'<'
NNNI-1
I-1
I0
tbI00
S''
tbsS'row'
p20
g12
(g13
(I0
tS'b'
tRp21
(I1
(L0L
tg19
I00
S''
tbsb.